(dp1
S'output'
p2
S"<type 'exceptions.NameError'> name 'json' is not defined"
p3
sS'layer'
p4
S'/home/pedro/web2py/applications/marvel_guide/views/admin/insert_hq.html'
p5
sS'code'
p6
S'response.write(\'\\t<!DOCTYPE html>\\r\\n<html lang="en">\\r\\n  <head>\\r\\n    <meta charset="utf-8">\\r\\n    <meta http-equiv="X-UA-Compatible" content="IE=edge">\\r\\n    <meta name="viewport" content="width=device-width, initial-scale=1">\\r\\n\\r\\n    <title>MARVEL Guide</title>\\r\\n\\r\\n    <meta name="description" content="Source code generated using layoutit.com">\\r\\n    <meta name="author" content="LayoutIt!">\\r\\n\\r\\n    <script src="../static/js/jquery.min.js"></script>\\r\\n    <script src="../static/js/bootstrap.min.js"></script>\\r\\n    <script src="../static/js/index_admin.js"></script>\\r\\n    <script src="../static/js/insert_hq.js"></script>\\r\\n    <script src="../static/js/input_mask.js"></script>\\r\\n    <script src="../static/js/format_fields.js"></script>\\r\\n    <script src="../static/js/validator.js"></script>\\r\\n    <script src="../static/js/bootstrap-select.js"></script>\\r\\n\\r\\n    <link href="../static/css/bootstrap.min.css" rel="stylesheet">\\r\\n    <link href="../static/css/common.css" rel="stylesheet">\\r\\n    <link href="../static/css/news.css" rel="stylesheet">\\r\\n    <link href="../static/css/labels.css" rel="stylesheet">\\r\\n    <link href="../static/css/table.css" rel="stylesheet">\\r\\n    <link href="../static/css/bootstrap-select.css" rel="stylesheet">\\r\\n\\r\\n  </head>\\r\\n  <body style="background-image: url(\\\'../static/images/back.jpg\\\')">\\r\\n\\r\\n    <div class="container-fluid">\\r\\n\\t<div class="row">\\r\\n\\t\\t<div class="col-md-12" id="menu">\\r\\n\\t\\t\\t\', escape=False)\nresponse.write(\'<nav class="navbar navbar-default nav_css" role="navigation">\\r\\n\\t\\t\\t\\t<div class="navbar-header">\\r\\n\\t\\t\\t\\t\\t \\r\\n\\t\\t\\t\\t\\t<button type="button" class="navbar-toggle" data-toggle="collapse" data-target="#bs-example-navbar-collapse-1">\\r\\n\\t\\t\\t\\t\\t\\t <span class="sr-only">Menu</span><span class="icon-bar"></span><span class="icon-bar"></span><span class="icon-bar"></span>\\r\\n\\t\\t\\t\\t\\t</button> <a class="navbar-brand" href="index.html" style="padding-top: 5px;"><img src="../static/images/title.png"></a>\\r\\n\\t\\t\\t\\t</div>\\r\\n\\t\\t\\t\\t\\r\\n\\t\\t\\t\\t<div class="collapse navbar-collapse" id="bs-example-navbar-collapse-1">\\r\\n\\t\\t\\t\\t\\t<ul class="nav navbar-nav">\\r\\n\\t\\t\\t\\t\\t\\t\\t<li>\\r\\n\\t\\t\\t\\t\\t\\t\\t\\t<a href="#" class="nav_item_style" style="color: white;">\\r\\n\\t\\t\\t\\t\\t\\t\\t\\t\\t<img src="../static/images/ico/deadpool.png">&nbsp;&nbsp;Quem Somos\\r\\n\\t\\t\\t\\t\\t\\t\\t\\t</a>\\r\\n\\t\\t\\t\\t\\t\\t\\t</li>\\r\\n\\t\\t\\t\\t\\t\\t\\t<li>\\r\\n\\t\\t\\t\\t\\t\\t\\t\\t<div class="btn-group nav_item_cat_div">\\r\\n\\t\\t\\t\\t\\t\\t\\t\\t\\t<button data-toggle="dropdown" class="btn btn-default dropdown-toggle nav_item_cat nav_item_style" style="color: white;">\\r\\n\\t\\t\\t\\t\\t\\t\\t\\t\\t\\t<img src="../static/images/ico/spider_man.png">&nbsp;&nbsp;Gerenciar&nbsp;<strong class="caret"></strong>\\r\\n\\t\\t\\t\\t\\t\\t\\t\\t\\t</button>\\r\\n\\t\\t\\t\\t\\t\\t\\t\\t\\t<ul class="dropdown-menu nav_dropdown">\\r\\n\\t\\t\\t\\t\\t\\t\\t\\t\\t\\t<li><a href="insert_character.html">Gerenciar Personagem</a></li>\\r\\n\\t\\t\\t\\t\\t\\t\\t\\t\\t\\t<li><a href="insert_hq.html">Gerenciar HQ</a></li>\\r\\n\\t\\t\\t\\t\\t\\t\\t\\t\\t\\t<li><a href="#">Gerenciar Not\\xc3\\xadcias</a></li>\\r\\n\\t\\t\\t\\t\\t\\t\\t\\t\\t</ul>\\r\\n\\t\\t\\t\\t\\t\\t\\t\\t</div>\\r\\n\\t\\t\\t\\t\\t\\t\\t</li>\\r\\n\\t\\t\\t\\t\\t\\t\\t<li>\\r\\n\\t\\t\\t\\t\\t\\t\\t\\t<div class="btn-group nav_item_cat_div">\\r\\n\\t\\t\\t\\t\\t\\t\\t\\t\\t<button data-toggle="dropdown" class="btn btn-default dropdown-toggle nav_item_cat nav_item_style" style="color: white;">\\r\\n\\t\\t\\t\\t\\t\\t\\t\\t\\t\\t<img src="../static/images/ico/spider_man.png">&nbsp;&nbsp;Categorias&nbsp;<strong class="caret"></strong>\\r\\n\\t\\t\\t\\t\\t\\t\\t\\t\\t</button>\\r\\n\\t\\t\\t\\t\\t\\t\\t\\t\\t<ul class="dropdown-menu nav_dropdown">\\r\\n\\t\\t\\t\\t\\t\\t\\t\\t\\t\\t<li><a href="categories.html">Her\\xc3\\xb3is</a></li>\\r\\n\\t\\t\\t\\t\\t\\t\\t\\t\\t\\t<li><a href="#">Vil\\xc3\\xb5es</a></li>\\r\\n\\t\\t\\t\\t\\t\\t\\t\\t\\t\\t<li><a href="#">Anti-Her\\xc3\\xb3is</a></li>\\r\\n\\t\\t\\t\\t\\t\\t\\t\\t\\t\\t<li class="divider"></li>\\r\\n\\t\\t\\t\\t\\t\\t\\t\\t\\t\\t<li><a href="#">Vingadores</a></li>\\r\\n\\t\\t\\t\\t\\t\\t\\t\\t\\t\\t<li><a href="#">X-Men</a></li>\\r\\n\\t\\t\\t\\t\\t\\t\\t\\t\\t\\t<li><a href="#">Guardi\\xc3\\xb5es Da Galaxia</a></li>\\r\\n\\t\\t\\t\\t\\t\\t\\t\\t\\t</ul>\\r\\n\\t\\t\\t\\t\\t\\t\\t\\t</div>\\r\\n\\t\\t\\t\\t\\t\\t\\t</li>\\r\\n\\t\\t\\t\\t\\t\\t</ul>\\r\\n\\t\\t\\t\\t\\t\\t<ul class="nav navbar-nav navbar-right">\\r\\n\\t\\t\\t\\t\\t\\t\\t<li>\\r\\n\\t\\t\\t\\t\\t\\t\\t\\t<form class="navbar-form navbar-left" role="search" style="padding-top: 4px;">\\r\\n\\t\\t\\t\\t\\t\\t\\t\\t\\t<div class="form-group">\\r\\n\\t\\t\\t\\t\\t\\t\\t\\t\\t\\t<input style="width: 130px;" type="text" class="form-control nav_item_search_text" />\\r\\n\\t\\t\\t\\t\\t\\t\\t\\t\\t</div> \\r\\n\\t\\t\\t\\t\\t\\t\\t\\t\\t&nbsp;&nbsp;\\r\\n\\t\\t\\t\\t\\t\\t\\t\\t\\t<a href="#" type="submit">\\r\\n\\t\\t\\t\\t\\t\\t\\t\\t\\t\\t<img src="../static/images/ico/search.png">\\r\\n\\t\\t\\t\\t\\t\\t\\t\\t\\t</a>\\r\\n\\t\\t\\t\\t\\t\\t\\t\\t</form>\\r\\n\\t\\t\\t\\t\\t\\t\\t</li>\\r\\n\\t\\t\\t\\t\\t\\t\\t<li>\\r\\n\\t\\t\\t\\t\\t\\t\\t\\t<div class="btn-group nav_item_cat_div">\\r\\n\\t\\t\\t\\t\\t\\t\\t\\t\\t<button data-toggle="dropdown" class="btn btn-default dropdown-toggle nav_item_cat nav_item_style" style="color: white;">\\r\\n\\t\\t\\t\\t\\t\\t\\t\\t\\t\\t<img src="../static/images/ico/spider_man.png">&nbsp;&nbsp;Bem-Vindo Pedro&nbsp;<strong class="caret"></strong>\\r\\n\\t\\t\\t\\t\\t\\t\\t\\t\\t</button>\\r\\n\\t\\t\\t\\t\\t\\t\\t\\t\\t<ul class="dropdown-menu nav_dropdown" style="padding: 10px;">\\r\\n\\t\\t\\t\\t\\t\\t\\t\\t\\t\\t<li>\\r\\n\\t\\t\\t\\t\\t\\t\\t\\t\\t\\t\\t<button class="form-control" onclick="onlyAdmin()">Sair</button>\\r\\n\\t\\t\\t\\t\\t\\t\\t\\t\\t\\t</li>\\r\\n\\t\\t\\t\\t\\t\\t\\t\\t\\t</ul>\\r\\n\\t\\t\\t\\t\\t\\t\\t\\t</div>\\r\\n\\t\\t\\t\\t\\t\\t\\t</li>\\r\\n\\t\\t\\t\\t\\t\\t</ul>\\r\\n\\t\\t\\t\\t</div>\\r\\n\\t\\t\\t\\t\\r\\n\\t\\t\\t</nav>\', escape=False)\nresponse.write(\'\\r\\n\\t\\t</div>\\r\\n\\t</div>\\r\\n\\t<div class="row">\\r\\n\\t\\t<div class="col-md-12 news_title">\\r\\n\\t\\t\\t<span class="title">Inserir HQ</span>\\r\\n\\t\\t</div>\\r\\n\\t</div>\\r\\n\\t<div class="border_radius css_news">\\r\\n\\t\\t<div id="error"></div>\\r\\n\\t\\t\\t<form role="form">\\r\\n\\t\\t\\t\\t<table class="table_form">\\r\\n\\t\\t\\t\\t\\t<tr>\\r\\n\\t\\t\\t\\t\\t\\t<td align="center" class="td_insert td_insert_left"><span class="label_span">T&iacute;tulo</span></td>\\r\\n\\t\\t\\t\\t\\t\\t<td align="center" class="td_insert td_insert_right"><span class="label_span">Descri\\xc3\\xa7\\xc3\\xa3o</span></td>\\r\\n\\t\\t\\t\\t\\t</tr>\\r\\n\\t\\t\\t\\t\\t<tr>\\r\\n\\t\\t\\t\\t\\t\\t<td align="center"><input type="text" id="hq_title" class="form-control inputs_size" /></td>\\r\\n\\t\\t\\t\\t\\t\\t<td rowspan="4" align="center"><textarea id="hq_description" class="form-control text_area inputs_size_text_area"></textarea></td>\\r\\n\\t\\t\\t\\t\\t</tr>\\r\\n\\r\\n\\t\\t\\t\\t\\t<tr><td align="center" class="td_insert"><span class="label_span">Personagens</span></td></tr>\\r\\n\\t\\t\\t\\t\\t<tr>\\r\\n\\t\\t\\t\\t\\t\\t<td align="center">\\r\\n\\t\\t\\t\\t\\t\\t\\t<select id="hq_character" class="form-control selectpicker" multiple data-live-search="true" data-selected-text-format="count > 2" data-width="300px">\\r\\n\\t\\t\\t\\t\\t\\t\\t</select>\\r\\n\\t\\t\\t\\t\\t\\t</td>\\r\\n\\t\\t\\t\\t\\t</tr>\\r\\n\\r\\n\\t\\t\\t\\t\\t<tr><td align="center" class="td_insert"><span class="label_span">Ano</span></td></tr>\\r\\n\\t\\t\\t\\t\\t<tr><td align="center"><input type="text" id="hq_year" class="form-control inputs_size" /></td></tr>\\r\\n\\r\\n\\t\\t\\t\\t\\t<tr>\\r\\n\\t\\t\\t\\t\\t\\t<td colspan="2" align="center" class="td_insert">\\r\\n\\t\\t\\t\\t\\t\\t\\t<input type="button" class="btn btn-success btn_save" id="insert" onclick="submit_insert_hq();" value="Salvar" />\\r\\n\\t\\t\\t\\t\\t\\t\\t<input type="button" class="btn btn-warning btn_cancel" id="cancel" onclick="cancel_edit();" value="Cancelar" />\\r\\n\\t\\t\\t\\t\\t\\t</td>\\r\\n\\t\\t\\t\\t\\t</tr>\\r\\n\\t\\t\\t\\t</table>\\r\\n\\t\\t\\t</form>\\r\\n\\t\\t\\t<hr/>\\r\\n\\t\\t\\t<div class="div_form_right" id="table_hqs" align="left"></div>\\r\\n\\t</div>\\r\\n\\t<div class="row">\\r\\n\\t\\t<div class="col-md-12">\\r\\n\\t\\t\\t<div class="page-header footer">\\r\\n\\t\\t\\t\\t<h1 class="footer_h1">\\r\\n\\t\\t\\t\\t\\tMarvel Guide! <small>Um site para voc\\xc3\\xaa que gosta de ler quadrinhos, por\\xc3\\xa9m fica um pouco perdido em onde come\\xc3\\xa7ar a ler, iremos te ajudar a ter uma boa base para come\\xc3\\xa7ar a se aventurar nesse incr\\xc3\\xadvel universo MARVEL!</small>\\r\\n\\t\\t\\t\\t</h1>\\r\\n\\t\\t\\t\\t<hr/>\\r\\n\\t\\t\\t\\t<h1 class="footer_h1">\\r\\n\\t\\t\\t\\t\\tPedro Henrique Silva Rosa\\r\\n\\t\\t\\t\\t</h1>\\r\\n\\t\\t\\t</div>\\r\\n\\t\\t</div>\\r\\n\\t</div>\\r\\n</div>\\r\\n\\r\\n    <script type="text/javascript">\\r\\n    \\tinit_insert_hq(\', escape=False)\nresponse.write(XML(json(characters)))\nresponse.write(\');\\r\\n    </script>\\r\\n\\r\\n  </body>\\r\\n</html>\', escape=False)'
p7
sS'snapshot'
p8
(dp9
S'exception'
p10
(dp11
S'__hash__'
p12
S"<method-wrapper '__hash__' of exceptions.NameError object>"
p13
sS'__setattr__'
p14
S"<method-wrapper '__setattr__' of exceptions.NameError object>"
p15
sS'__reduce_ex__'
p16
S'<built-in method __reduce_ex__ of exceptions.NameError object>'
p17
sS'__getslice__'
p18
S"<method-wrapper '__getslice__' of exceptions.NameError object>"
p19
sS'__getitem__'
p20
S"<method-wrapper '__getitem__' of exceptions.NameError object>"
p21
sS'__setstate__'
p22
S'<built-in method __setstate__ of exceptions.NameError object>'
p23
sS'args'
p24
S'("name \'json\' is not defined",)'
p25
sS'__reduce__'
p26
S'<built-in method __reduce__ of exceptions.NameError object>'
p27
sS'__str__'
p28
S"<method-wrapper '__str__' of exceptions.NameError object>"
p29
sS'__format__'
p30
S'<built-in method __format__ of exceptions.NameError object>'
p31
sS'__getattribute__'
p32
S"<method-wrapper '__getattribute__' of exceptions.NameError object>"
p33
sS'__class__'
p34
S"<type 'exceptions.NameError'>"
p35
sS'__unicode__'
p36
S'<built-in method __unicode__ of exceptions.NameError object>'
p37
sS'__delattr__'
p38
S"<method-wrapper '__delattr__' of exceptions.NameError object>"
p39
sS'__subclasshook__'
p40
S'<built-in method __subclasshook__ of type object>'
p41
sS'__repr__'
p42
S"<method-wrapper '__repr__' of exceptions.NameError object>"
p43
sS'__dict__'
p44
S'{}'
p45
sS'__sizeof__'
p46
S'<built-in method __sizeof__ of exceptions.NameError object>'
p47
sS'__doc__'
p48
S"'Name not found globally.'"
p49
sS'__init__'
p50
S"<method-wrapper '__init__' of exceptions.NameError object>"
p51
sS'__new__'
p52
S'<built-in method __new__ of type object>'
p53
ssS'evalue'
p54
S"name 'json' is not defined"
p55
sS'request'
p56
cgluon.html
XML_unpickle
p57
(S's\xa5^\x00\x00<div><table><tr><td style="font-weight:bold;vertical-align:top;">ajax</td><td style="vertical-align:top;">:</td><td><div>False</div></td></tr><tr><td style="font-weight:bold;vertical-align:top;">application</td><td style="vertical-align:top;">:</td><td><div>marvel_guide</div></td></tr><tr><td style="font-weight:bold;vertical-align:top;">args</td><td style="vertical-align:top;">:</td><td><div><table></table></div></td></tr><tr><td style="font-weight:bold;vertical-align:top;">cid</td><td style="vertical-align:top;">:</td><td><div>None</div></td></tr><tr><td style="font-weight:bold;vertical-align:top;">client</td><td style="vertical-align:top;">:</td><td><div>127.0.0.1</div></td></tr><tr><td style="font-weight:bold;vertical-align:top;">controller</td><td style="vertical-align:top;">:</td><td><div>admin</div></td></tr><tr><td style="font-weight:bold;vertical-align:top;">cookies</td><td style="vertical-align:top;">:</td><td><div><table><tr><td style="font-weight:bold;vertical-align:top;">session_id_admin</td><td style="vertical-align:top;">:</td><td><div>127.0.0.1-85d21087-4565-4824-b415-a4aa0d70a204<table><tr><td style="font-weight:bold;vertical-align:top;">comment</td><td style="vertical-align:top;">:</td><td><div></div></td></tr><tr><td style="font-weight:bold;vertical-align:top;">domain</td><td style="vertical-align:top;">:</td><td><div></div></td></tr><tr><td style="font-weight:bold;vertical-align:top;">expires</td><td style="vertical-align:top;">:</td><td><div></div></td></tr><tr><td style="font-weight:bold;vertical-align:top;">httponly</td><td style="vertical-align:top;">:</td><td><div></div></td></tr><tr><td style="font-weight:bold;vertical-align:top;">max-age</td><td style="vertical-align:top;">:</td><td><div></div></td></tr><tr><td style="font-weight:bold;vertical-align:top;">path</td><td style="vertical-align:top;">:</td><td><div></div></td></tr><tr><td style="font-weight:bold;vertical-align:top;">secure</td><td style="vertical-align:top;">:</td><td><div></div></td></tr><tr><td style="font-weight:bold;vertical-align:top;">version</td><td style="vertical-align:top;">:</td><td><div></div></td></tr></table></div></td></tr><tr><td style="font-weight:bold;vertical-align:top;">session_id_marvel_guide</td><td style="vertical-align:top;">:</td><td><div>127.0.0.1-fe65a1e8-c88a-4003-8895-af5d7892bbcb<table><tr><td style="font-weight:bold;vertical-align:top;">comment</td><td style="vertical-align:top;">:</td><td><div></div></td></tr><tr><td style="font-weight:bold;vertical-align:top;">domain</td><td style="vertical-align:top;">:</td><td><div></div></td></tr><tr><td style="font-weight:bold;vertical-align:top;">expires</td><td style="vertical-align:top;">:</td><td><div></div></td></tr><tr><td style="font-weight:bold;vertical-align:top;">httponly</td><td style="vertical-align:top;">:</td><td><div></div></td></tr><tr><td style="font-weight:bold;vertical-align:top;">max-age</td><td style="vertical-align:top;">:</td><td><div></div></td></tr><tr><td style="font-weight:bold;vertical-align:top;">path</td><td style="vertical-align:top;">:</td><td><div></div></td></tr><tr><td style="font-weight:bold;vertical-align:top;">secure</td><td style="vertical-align:top;">:</td><td><div></div></td></tr><tr><td style="font-weight:bold;vertical-align:top;">version</td><td style="vertical-align:top;">:</td><td><div></div></td></tr></table></div></td></tr><tr><td style="font-weight:bold;vertical-align:top;">session_id_welcome</td><td style="vertical-align:top;">:</td><td><div>127.0.0.1-79cb6de1-d37c-4ceb-b983-da3baf2b2e0a<table><tr><td style="font-weight:bold;vertical-align:top;">comment</td><td style="vertical-align:top;">:</td><td><div></div></td></tr><tr><td style="font-weight:bold;vertical-align:top;">domain</td><td style="vertical-align:top;">:</td><td><div></div></td></tr><tr><td style="font-weight:bold;vertical-align:top;">expires</td><td style="vertical-align:top;">:</td><td><div></div></td></tr><tr><td style="font-weight:bold;vertical-align:top;">httponly</td><td style="vertical-align:top;">:</td><td><div></div></td></tr><tr><td style="font-weight:bold;vertical-align:top;">max-age</td><td style="vertical-align:top;">:</td><td><div></div></td></tr><tr><td style="font-weight:bold;vertical-align:top;">path</td><td style="vertical-align:top;">:</td><td><div></div></td></tr><tr><td style="font-weight:bold;vertical-align:top;">secure</td><td style="vertical-align:top;">:</td><td><div></div></td></tr><tr><td style="font-weight:bold;vertical-align:top;">version</td><td style="vertical-align:top;">:</td><td><div></div></td></tr></table></div></td></tr></table></div></td></tr><tr><td style="font-weight:bold;vertical-align:top;">env</td><td style="vertical-align:top;">:</td><td><div><table><tr><td style="font-weight:bold;vertical-align:top;">HTTP_ACCEPT</td><td style="vertical-align:top;">:</td><td><div>text/html,application/xhtml+xml,application/xml;q=0.9,image/webp,*/*;q=0.8</div></td></tr><tr><td style="font-weight:bold;vertical-align:top;">HTTP_ACCEPT_ENCODING</td><td style="vertical-align:top;">:</td><td><div>gzip, deflate, sdch</div></td></tr><tr><td style="font-weight:bold;vertical-align:top;">HTTP_ACCEPT_LANGUAGE</td><td style="vertical-align:top;">:</td><td><div>pt-BR,pt;q=0.8,en-US;q=0.6,en;q=0.4,es;q=0.2</div></td></tr><tr><td style="font-weight:bold;vertical-align:top;">HTTP_CACHE_CONTROL</td><td style="vertical-align:top;">:</td><td><div>no-cache</div></td></tr><tr><td style="font-weight:bold;vertical-align:top;">HTTP_CONNECTION</td><td style="vertical-align:top;">:</td><td><div>keep-alive</div></td></tr><tr><td style="font-weight:bold;vertical-align:top;">HTTP_COOKIE</td><td style="vertical-align:top;">:</td><td><div>session_id_welcome=127.0.0.1-79cb6de1-d37c-4ceb-b983-da3baf2b2e0a; session_id_admin=127.0.0.1-85d21087-4565-4824-b415-a4aa0d70a204; session_id_marvel_guide=127.0.0.1-fe65a1e8-c88a-4003-8895-af5d7892bbcb</div></td></tr><tr><td style="font-weight:bold;vertical-align:top;">HTTP_HOST</td><td style="vertical-align:top;">:</td><td><div>127.0.0.1:8000</div></td></tr><tr><td style="font-weight:bold;vertical-align:top;">HTTP_PRAGMA</td><td style="vertical-align:top;">:</td><td><div>no-cache</div></td></tr><tr><td style="font-weight:bold;vertical-align:top;">HTTP_REFERER</td><td style="vertical-align:top;">:</td><td><div>http://127.0.0.1:8000/marvel_guide/admin/index_admin.html</div></td></tr><tr><td style="font-weight:bold;vertical-align:top;">HTTP_UPGRADE_INSECURE_REQUESTS</td><td style="vertical-align:top;">:</td><td><div>1</div></td></tr><tr><td style="font-weight:bold;vertical-align:top;">HTTP_USER_AGENT</td><td style="vertical-align:top;">:</td><td><div>Mozilla/5.0 (X11; Linux x86_64) AppleWebKit/537.36 (KHTML, like Gecko) Chrome/50.0.2661.75 Safari/537.36</div></td></tr><tr><td style="font-weight:bold;vertical-align:top;">PATH_INFO</td><td style="vertical-align:top;">:</td><td><div>/marvel_guide/admin/insert_hq.html</div></td></tr><tr><td style="font-weight:bold;vertical-align:top;">QUERY_STRING</td><td style="vertical-align:top;">:</td><td><div></div></td></tr><tr><td style="font-weight:bold;vertical-align:top;">REMOTE_ADDR</td><td style="vertical-align:top;">:</td><td><div>127.0.0.1</div></td></tr><tr><td style="font-weight:bold;vertical-align:top;">REMOTE_PORT</td><td style="vertical-align:top;">:</td><td><div>56326</div></td></tr><tr><td style="font-weight:bold;vertical-align:top;">REQUEST_METHOD</td><td style="vertical-align:top;">:</td><td><div>GET</div></td></tr><tr><td style="font-weight:bold;vertical-align:top;">SCRIPT_NAME</td><td style="vertical-align:top;">:</td><td><div></div></td></tr><tr><td style="font-weight:bold;vertical-align:top;">SERVER_NAME</td><td style="vertical-align:top;">:</td><td><div>pedro-Inspiron-5458</div></td></tr><tr><td style="font-weight:bold;vertical-align:top;">SERVER_PORT</td><td style="vertical-align:top;">:</td><td><div>8000</div></td></tr><tr><td style="font-weight:bold;vertical-align:top;">SERVER_PROTOCOL</td><td style="vertical-align:top;">:</td><td><div>HTTP/1.1</div></td></tr><tr><td style="font-weight:bold;vertical-align:top;">SERVER_SOFTWARE</td><td style="vertical-align:top;">:</td><td><div>Rocket 1.2.6</div></td></tr><tr><td style="font-weight:bold;vertical-align:top;">app_folders</td><td style="vertical-align:top;">:</td><td><div>set([&#x27;/home/pedro/web2py/applications/marvel_guide/&#x27;, &#x27;/home/pedro/web2py/applications/admin/&#x27;, &#x27;/home/pedro/web2py/applications/welcome/&#x27;])</div></td></tr><tr><td style="font-weight:bold;vertical-align:top;">applications_parent</td><td style="vertical-align:top;">:</td><td><div>/home/pedro/web2py</div></td></tr><tr><td style="font-weight:bold;vertical-align:top;">cmd_args</td><td style="vertical-align:top;">:</td><td><div><table></table></div></td></tr><tr><td style="font-weight:bold;vertical-align:top;">cmd_options</td><td style="vertical-align:top;">:</td><td><div>&lt;Values at 0x7fb592712c68: {&#x27;verbose&#x27;: False, &#x27;ip&#x27;: &#x27;0.0.0.0&#x27;, &#x27;debuglevel&#x27;: 30, &#x27;with_scheduler&#x27;: False, &#x27;ips&#x27;: [&#x27;127.0.1.1&#x27;], &#x27;shutdown_timeout&#x27;: 5, &#x27;taskbar&#x27;: False, &#x27;with_coverage&#x27;: False, &#x27;scheduler_groups&#x27;: None, &#x27;port&#x27;: 8000, &#x27;maxthreads&#x27;: None, &#x27;softcron&#x27;: False, &#x27;server_name&#x27;: &#x27;pedro-Inspiron-5458&#x27;, &#x27;bpython&#x27;: False, &#x27;nogui&#x27;: False, &#x27;pid_filename&#x27;: &#x27;httpserver.pid&#x27;, &#x27;print_errors&#x27;: False, &#x27;extcron&#x27;: False, &#x27;runcron&#x27;: False, &#x27;run_system_tests&#x27;: False, &#x27;test&#x27;: None, &#x27;folder&#x27;: &#x27;/home/pedro/web2py&#x27;, &#x27;config&#x27;: &#x27;&#x27;, &#x27;minthreads&#x27;: None, &#x27;shell&#x27;: None, &#x27;run&#x27;: &#x27;&#x27;, &#x27;log_filename&#x27;: &#x27;httpserver.log&#x27;, &#x27;profiler_dir&#x27;: None, &#x27;args&#x27;: [&#x27;&#x27;], &#x27;socket_timeout&#x27;: 5, &#x27;ssl_ca_certificate&#x27;: None, &#x27;scheduler&#x27;: None, &#x27;interfaces&#x27;: None, &#x27;ssl_private_key&#x27;: &#x27;&#x27;, &#x27;gae&#x27;: None, &#x27;password&#x27;: &#x27;admin&#x27;, &#x27;request_queue_size&#x27;: 5, &#x27;ssl_certificate&#x27;: &#x27;&#x27;, &#x27;cronjob&#x27;: False, &#x27;numthreads&#x27;: None, &#x27;quiet&#x27;: False, &#x27;import_models&#x27;: False, &#x27;timeout&#x27;: 10, &#x27;plain&#x27;: False, &#x27;nobanner&#x27;: False}&gt;</div></td></tr><tr><td style="font-weight:bold;vertical-align:top;">db_sessions</td><td style="vertical-align:top;">:</td><td><div>set([])</div></td></tr><tr><td style="font-weight:bold;vertical-align:top;">debugging</td><td style="vertical-align:top;">:</td><td><div>False</div></td></tr><tr><td style="font-weight:bold;vertical-align:top;">gluon_parent</td><td style="vertical-align:top;">:</td><td><div>/home/pedro/web2py</div></td></tr><tr><td style="font-weight:bold;vertical-align:top;">http_accept</td><td style="vertical-align:top;">:</td><td><div>text/html,application/xhtml+xml,application/xml;q=0.9,image/webp,*/*;q=0.8</div></td></tr><tr><td style="font-weight:bold;vertical-align:top;">http_accept_encoding</td><td style="vertical-align:top;">:</td><td><div>gzip, deflate, sdch</div></td></tr><tr><td style="font-weight:bold;vertical-align:top;">http_accept_language</td><td style="vertical-align:top;">:</td><td><div>pt-BR,pt;q=0.8,en-US;q=0.6,en;q=0.4,es;q=0.2</div></td></tr><tr><td style="font-weight:bold;vertical-align:top;">http_cache_control</td><td style="vertical-align:top;">:</td><td><div>no-cache</div></td></tr><tr><td style="font-weight:bold;vertical-align:top;">http_connection</td><td style="vertical-align:top;">:</td><td><div>keep-alive</div></td></tr><tr><td style="font-weight:bold;vertical-align:top;">http_cookie</td><td style="vertical-align:top;">:</td><td><div>session_id_welcome=127.0.0.1-79cb6de1-d37c-4ceb-b983-da3baf2b2e0a; session_id_admin=127.0.0.1-85d21087-4565-4824-b415-a4aa0d70a204; session_id_marvel_guide=127.0.0.1-fe65a1e8-c88a-4003-8895-af5d7892bbcb</div></td></tr><tr><td style="font-weight:bold;vertical-align:top;">http_host</td><td style="vertical-align:top;">:</td><td><div>127.0.0.1:8000</div></td></tr><tr><td style="font-weight:bold;vertical-align:top;">http_pragma</td><td style="vertical-align:top;">:</td><td><div>no-cache</div></td></tr><tr><td style="font-weight:bold;vertical-align:top;">http_referer</td><td style="vertical-align:top;">:</td><td><div>http://127.0.0.1:8000/marvel_guide/admin/index_admin.html</div></td></tr><tr><td style="font-weight:bold;vertical-align:top;">http_upgrade_insecure_requests</td><td style="vertical-align:top;">:</td><td><div>1</div></td></tr><tr><td style="font-weight:bold;vertical-align:top;">http_user_agent</td><td style="vertical-align:top;">:</td><td><div>Mozilla/5.0 (X11; Linux x86_64) AppleWebKit/537.36 (KHTML, like Gecko) Chrome/50.0.2661.75 Safari/537.36</div></td></tr><tr><td style="font-weight:bold;vertical-align:top;">is_jython</td><td style="vertical-align:top;">:</td><td><div>False</div></td></tr><tr><td style="font-weight:bold;vertical-align:top;">is_pypy</td><td style="vertical-align:top;">:</td><td><div>False</div></td></tr><tr><td style="font-weight:bold;vertical-align:top;">is_source</td><td style="vertical-align:top;">:</td><td><div>True</div></td></tr><tr><td style="font-weight:bold;vertical-align:top;">local_hosts</td><td style="vertical-align:top;">:</td><td><div><table><tr><td><div>pedro-Inspiron-5458</div></td></tr><tr><td><div>::1</div></td></tr><tr><td><div>127.0.1.1</div></td></tr><tr><td><div>::ffff:127.0.0.1</div></td></tr><tr><td><div>127.0.0.1</div></td></tr></table></div></td></tr><tr><td style="font-weight:bold;vertical-align:top;">path_info</td><td style="vertical-align:top;">:</td><td><div>/marvel_guide/admin/insert_hq.html</div></td></tr><tr><td style="font-weight:bold;vertical-align:top;">query_string</td><td style="vertical-align:top;">:</td><td><div></div></td></tr><tr><td style="font-weight:bold;vertical-align:top;">remote_addr</td><td style="vertical-align:top;">:</td><td><div>127.0.0.1</div></td></tr><tr><td style="font-weight:bold;vertical-align:top;">remote_port</td><td style="vertical-align:top;">:</td><td><div>56326</div></td></tr><tr><td style="font-weight:bold;vertical-align:top;">request_method</td><td style="vertical-align:top;">:</td><td><div>GET</div></td></tr><tr><td style="font-weight:bold;vertical-align:top;">request_uri</td><td style="vertical-align:top;">:</td><td><div>/marvel_guide/admin/insert_hq.html</div></td></tr><tr><td style="font-weight:bold;vertical-align:top;">script_name</td><td style="vertical-align:top;">:</td><td><div></div></td></tr><tr><td style="font-weight:bold;vertical-align:top;">server_name</td><td style="vertical-align:top;">:</td><td><div>pedro-Inspiron-5458</div></td></tr><tr><td style="font-weight:bold;vertical-align:top;">server_port</td><td style="vertical-align:top;">:</td><td><div>8000</div></td></tr><tr><td style="font-weight:bold;vertical-align:top;">server_protocol</td><td style="vertical-align:top;">:</td><td><div>HTTP/1.1</div></td></tr><tr><td style="font-weight:bold;vertical-align:top;">server_software</td><td style="vertical-align:top;">:</td><td><div>Rocket 1.2.6</div></td></tr><tr><td style="font-weight:bold;vertical-align:top;">web2py_path</td><td style="vertical-align:top;">:</td><td><div>/home/pedro/web2py</div></td></tr><tr><td style="font-weight:bold;vertical-align:top;">web2py_version</td><td style="vertical-align:top;">:</td><td><div>2.11.2-stable+timestamp.2015.05.30.16.33.24</div></td></tr><tr><td style="font-weight:bold;vertical-align:top;">wsgi.errors</td><td style="vertical-align:top;">:</td><td><div>&lt;open file &#x27;&lt;stderr&gt;&#x27;, mode &#x27;w&#x27; at 0x7fb59b2c31e0&gt;</div></td></tr><tr><td style="font-weight:bold;vertical-align:top;">wsgi.file_wrapper</td><td style="vertical-align:top;">:</td><td><div>&lt;class wsgiref.util.FileWrapper at 0x7fb5915c5188&gt;</div></td></tr><tr><td style="font-weight:bold;vertical-align:top;">wsgi.input</td><td style="vertical-align:top;">:</td><td><div>&lt;socket._fileobject object at 0x7fb590105150&gt;</div></td></tr><tr><td style="font-weight:bold;vertical-align:top;">wsgi.multiprocess</td><td style="vertical-align:top;">:</td><td><div>False</div></td></tr><tr><td style="font-weight:bold;vertical-align:top;">wsgi.multithread</td><td style="vertical-align:top;">:</td><td><div>True</div></td></tr><tr><td style="font-weight:bold;vertical-align:top;">wsgi.run_once</td><td style="vertical-align:top;">:</td><td><div>False</div></td></tr><tr><td style="font-weight:bold;vertical-align:top;">wsgi.url_scheme</td><td style="vertical-align:top;">:</td><td><div>http</div></td></tr><tr><td style="font-weight:bold;vertical-align:top;">wsgi.version</td><td style="vertical-align:top;">:</td><td><div><table><tr><td><div>1</div></td></tr><tr><td><div>0</div></td></tr></table></div></td></tr><tr><td style="font-weight:bold;vertical-align:top;">wsgi_errors</td><td style="vertical-align:top;">:</td><td><div>&lt;open file &#x27;&lt;stderr&gt;&#x27;, mode &#x27;w&#x27; at 0x7fb59b2c31e0&gt;</div></td></tr><tr><td style="font-weight:bold;vertical-align:top;">wsgi_file_wrapper</td><td style="vertical-align:top;">:</td><td><div>&lt;class wsgiref.util.FileWrapper at 0x7fb5915c5188&gt;</div></td></tr><tr><td style="font-weight:bold;vertical-align:top;">wsgi_input</td><td style="vertical-align:top;">:</td><td><div>&lt;socket._fileobject object at 0x7fb590105150&gt;</div></td></tr><tr><td style="font-weight:bold;vertical-align:top;">wsgi_multiprocess</td><td style="vertical-align:top;">:</td><td><div>False</div></td></tr><tr><td style="font-weight:bold;vertical-align:top;">wsgi_multithread</td><td style="vertical-align:top;">:</td><td><div>True</div></td></tr><tr><td style="font-weight:bold;vertical-align:top;">wsgi_run_once</td><td style="vertical-align:top;">:</td><td><div>False</div></td></tr><tr><td style="font-weight:bold;vertical-align:top;">wsgi_url_scheme</td><td style="vertical-align:top;">:</td><td><div>http</div></td></tr><tr><td style="font-weight:bold;vertical-align:top;">wsgi_version</td><td style="vertical-align:top;">:</td><td><div><table><tr><td><div>1</div></td></tr><tr><td><div>0</div></td></tr></table></div></td></tr></table></div></td></tr><tr><td style="font-weight:bold;vertical-align:top;">extension</td><td style="vertical-align:top;">:</td><td><div>html</div></td></tr><tr><td style="font-weight:bold;vertical-align:top;">folder</td><td style="vertical-align:top;">:</td><td><div>/home/pedro/web2py/applications/marvel_guide/</div></td></tr><tr><td style="font-weight:bold;vertical-align:top;">function</td><td style="vertical-align:top;">:</td><td><div>insert_hq</div></td></tr><tr><td style="font-weight:bold;vertical-align:top;">global_settings</td><td style="vertical-align:top;">:</td><td><div><table><tr><td style="font-weight:bold;vertical-align:top;">app_folders</td><td style="vertical-align:top;">:</td><td><div>set([&#x27;/home/pedro/web2py/applications/marvel_guide/&#x27;, &#x27;/home/pedro/web2py/applications/admin/&#x27;, &#x27;/home/pedro/web2py/applications/welcome/&#x27;])</div></td></tr><tr><td style="font-weight:bold;vertical-align:top;">applications_parent</td><td style="vertical-align:top;">:</td><td><div>/home/pedro/web2py</div></td></tr><tr><td style="font-weight:bold;vertical-align:top;">cmd_args</td><td style="vertical-align:top;">:</td><td><div><table></table></div></td></tr><tr><td style="font-weight:bold;vertical-align:top;">cmd_options</td><td style="vertical-align:top;">:</td><td><div>&lt;Values at 0x7fb592712c68: {&#x27;verbose&#x27;: False, &#x27;ip&#x27;: &#x27;0.0.0.0&#x27;, &#x27;debuglevel&#x27;: 30, &#x27;with_scheduler&#x27;: False, &#x27;ips&#x27;: [&#x27;127.0.1.1&#x27;], &#x27;shutdown_timeout&#x27;: 5, &#x27;taskbar&#x27;: False, &#x27;with_coverage&#x27;: False, &#x27;scheduler_groups&#x27;: None, &#x27;port&#x27;: 8000, &#x27;maxthreads&#x27;: None, &#x27;softcron&#x27;: False, &#x27;server_name&#x27;: &#x27;pedro-Inspiron-5458&#x27;, &#x27;bpython&#x27;: False, &#x27;nogui&#x27;: False, &#x27;pid_filename&#x27;: &#x27;httpserver.pid&#x27;, &#x27;print_errors&#x27;: False, &#x27;extcron&#x27;: False, &#x27;runcron&#x27;: False, &#x27;run_system_tests&#x27;: False, &#x27;test&#x27;: None, &#x27;folder&#x27;: &#x27;/home/pedro/web2py&#x27;, &#x27;config&#x27;: &#x27;&#x27;, &#x27;minthreads&#x27;: None, &#x27;shell&#x27;: None, &#x27;run&#x27;: &#x27;&#x27;, &#x27;log_filename&#x27;: &#x27;httpserver.log&#x27;, &#x27;profiler_dir&#x27;: None, &#x27;args&#x27;: [&#x27;&#x27;], &#x27;socket_timeout&#x27;: 5, &#x27;ssl_ca_certificate&#x27;: None, &#x27;scheduler&#x27;: None, &#x27;interfaces&#x27;: None, &#x27;ssl_private_key&#x27;: &#x27;&#x27;, &#x27;gae&#x27;: None, &#x27;password&#x27;: &#x27;admin&#x27;, &#x27;request_queue_size&#x27;: 5, &#x27;ssl_certificate&#x27;: &#x27;&#x27;, &#x27;cronjob&#x27;: False, &#x27;numthreads&#x27;: None, &#x27;quiet&#x27;: False, &#x27;import_models&#x27;: False, &#x27;timeout&#x27;: 10, &#x27;plain&#x27;: False, &#x27;nobanner&#x27;: False}&gt;</div></td></tr><tr><td style="font-weight:bold;vertical-align:top;">db_sessions</td><td style="vertical-align:top;">:</td><td><div>set([])</div></td></tr><tr><td style="font-weight:bold;vertical-align:top;">debugging</td><td style="vertical-align:top;">:</td><td><div>False</div></td></tr><tr><td style="font-weight:bold;vertical-align:top;">gluon_parent</td><td style="vertical-align:top;">:</td><td><div>/home/pedro/web2py</div></td></tr><tr><td style="font-weight:bold;vertical-align:top;">is_jython</td><td style="vertical-align:top;">:</td><td><div>False</div></td></tr><tr><td style="font-weight:bold;vertical-align:top;">is_pypy</td><td style="vertical-align:top;">:</td><td><div>False</div></td></tr><tr><td style="font-weight:bold;vertical-align:top;">is_source</td><td style="vertical-align:top;">:</td><td><div>True</div></td></tr><tr><td style="font-weight:bold;vertical-align:top;">local_hosts</td><td style="vertical-align:top;">:</td><td><div><table><tr><td><div>pedro-Inspiron-5458</div></td></tr><tr><td><div>::1</div></td></tr><tr><td><div>127.0.1.1</div></td></tr><tr><td><div>::ffff:127.0.0.1</div></td></tr><tr><td><div>127.0.0.1</div></td></tr></table></div></td></tr><tr><td style="font-weight:bold;vertical-align:top;">web2py_version</td><td style="vertical-align:top;">:</td><td><div>2.11.2-stable+timestamp.2015.05.30.16.33.24</div></td></tr></table></div></td></tr><tr><td style="font-weight:bold;vertical-align:top;">is_https</td><td style="vertical-align:top;">:</td><td><div>False</div></td></tr><tr><td style="font-weight:bold;vertical-align:top;">is_local</td><td style="vertical-align:top;">:</td><td><div>True</div></td></tr><tr><td style="font-weight:bold;vertical-align:top;">is_restful</td><td style="vertical-align:top;">:</td><td><div>False</div></td></tr><tr><td style="font-weight:bold;vertical-align:top;">is_sheduler</td><td style="vertical-align:top;">:</td><td><div>None</div></td></tr><tr><td style="font-weight:bold;vertical-align:top;">is_shell</td><td style="vertical-align:top;">:</td><td><div>None</div></td></tr><tr><td style="font-weight:bold;vertical-align:top;">now</td><td style="vertical-align:top;">:</td><td><div>datetime.datetime(2016, 4, 19, 20, 6, 23, 237016)</div></td></tr><tr><td style="font-weight:bold;vertical-align:top;">raw_args</td><td style="vertical-align:top;">:</td><td><div></div></td></tr><tr><td style="font-weight:bold;vertical-align:top;">raw_extension</td><td style="vertical-align:top;">:</td><td><div>html</div></td></tr><tr><td style="font-weight:bold;vertical-align:top;">url</td><td style="vertical-align:top;">:</td><td><div>/marvel_guide/admin/insert_hq.html</div></td></tr><tr><td style="font-weight:bold;vertical-align:top;">utcnow</td><td style="vertical-align:top;">:</td><td><div>datetime.datetime(2016, 4, 19, 23, 6, 23, 237050)</div></td></tr><tr><td style="font-weight:bold;vertical-align:top;">wsgi</td><td style="vertical-align:top;">:</td><td><div>&lt;gluon.main.LazyWSGI object at 0x7fb580176f10&gt;</div></td></tr></table></div>'
tRp58
sS'frames'
p59
(lp60
(dp61
S'file'
p62
S'/home/pedro/web2py/gluon/restricted.py'
p63
sS'dump'
p64
(dp65
S'environment'
p66
S"{'A': <class 'gluon.html.A'>, 'ANY_OF': <class 'gluon.validators.ANY_OF'>, 'ASSIGNJS': <function ASSIGNJS>, 'AppConfig': <function AppConfig>, 'Auth': <class 'gluon.tools.Auth'>, 'B': <class 'gluon.html.B'>, 'BEAUTIFY': <class 'gluon.html.BEAUTIFY'>, 'BODY': <class 'gluon.html.BODY'>, 'BR': <class 'gluon.html.BR'>, 'BUTTON': <class 'gluon.html.BUTTON'>, ...}"
p67
sS'ccode'
p68
S'<code object <module> at 0x7fb590105bb0, file "/...marvel_guide/views/admin/insert_hq.html", line 1>'
p69
ssS'lnum'
p70
I227
sS'lines'
p71
(dp72
I224
S'            ccode = code'
p73
sI225
S'        else:'
p74
sI226
S'            ccode = compile2(code, layer)'
p75
sI227
S'        exec ccode in environment'
p76
sI228
S'    except HTTP:'
p77
sI229
S'        raise'
p78
sI230
S'    except RestrictedError:'
p79
sI231
S'        # do not encapsulate (obfuscate) the original RestrictedError'
p80
sI222
S'    try:'
p81
sI223
S'        if isinstance(code, types.CodeType):'
p82
ssS'call'
p83
S'(code=r"response.write(\'\\t<!DOCTYPE html>\\r\\n<html lang=...ript>\\r\\n\\r\\n  </body>\\r\\n</html>\', escape=False)", environment={\'A\': <class \'gluon.html.A\'>, \'ANY_OF\': <class \'gluon.validators.ANY_OF\'>, \'ASSIGNJS\': <function ASSIGNJS>, \'AppConfig\': <function AppConfig>, \'Auth\': <class \'gluon.tools.Auth\'>, \'B\': <class \'gluon.html.B\'>, \'BEAUTIFY\': <class \'gluon.html.BEAUTIFY\'>, \'BODY\': <class \'gluon.html.BODY\'>, \'BR\': <class \'gluon.html.BR\'>, \'BUTTON\': <class \'gluon.html.BUTTON\'>, ...}, layer=\'/home/pedro/web2py/applications/marvel_guide/views/admin/insert_hq.html\')'
p84
sS'func'
p85
S'restricted'
p86
sa(dp87
g62
S'/home/pedro/web2py/applications/marvel_guide/views/admin/insert_hq.html'
p88
sg64
(dp89
S'meta'
p90
S'undefined'
p91
sS'charset'
p92
g91
ssg70
I4
sg71
(dp93
I1
S'response.write(\'\\t<!DOCTYPE html>\\r\\n<html lang="en">\\r\\n  <head>\\r\\n    <meta charset="utf-8">\\r\\n    <meta http-equiv="X-UA-Compatible" content="IE=edge">\\r\\n    <meta name="viewport" content="width=device-width, initial-scale=1">\\r\\n\\r\\n    <title>MARVEL Guide</title>\\r\\n\\r\\n    <meta name="description" content="Source code generated using layoutit.com">\\r\\n    <meta name="author" content="LayoutIt!">\\r\\n\\r\\n    <script src="../static/js/jquery.min.js"></script>\\r\\n    <script src="../static/js/bootstrap.min.js"></script>\\r\\n    <script src="../static/js/index_admin.js"></script>\\r\\n    <script src="../static/js/insert_hq.js"></script>\\r\\n    <script src="../static/js/input_mask.js"></script>\\r\\n    <script src="../static/js/format_fields.js"></script>\\r\\n    <script src="../static/js/validator.js"></script>\\r\\n    <script src="../static/js/bootstrap-select.js"></script>\\r\\n\\r\\n    <link href="../static/css/bootstrap.min.css" rel="stylesheet">\\r\\n    <link href="../static/css/common.css" rel="stylesheet">\\r\\n    <link href="../static/css/news.css" rel="stylesheet">\\r\\n    <link href="../static/css/labels.css" rel="stylesheet">\\r\\n    <link href="../static/css/table.css" rel="stylesheet">\\r\\n    <link href="../static/css/bootstrap-select.css" rel="stylesheet">\\r\\n\\r\\n  </head>\\r\\n  <body style="background-image: url(\\\'../static/images/back.jpg\\\')">\\r\\n\\r\\n    <div class="container-fluid">\\r\\n\\t<div class="row">\\r\\n\\t\\t<div class="col-md-12" id="menu">\\r\\n\\t\\t\\t\', escape=False)'
p94
sI2
S'response.write(\'<nav class="navbar navbar-default nav_css" role="navigation">\\r\\n\\t\\t\\t\\t<div class="navbar-header">\\r\\n\\t\\t\\t\\t\\t \\r\\n\\t\\t\\t\\t\\t<button type="button" class="navbar-toggle" data-toggle="collapse" data-target="#bs-example-navbar-collapse-1">\\r\\n\\t\\t\\t\\t\\t\\t <span class="sr-only">Menu</span><span class="icon-bar"></span><span class="icon-bar"></span><span class="icon-bar"></span>\\r\\n\\t\\t\\t\\t\\t</button> <a class="navbar-brand" href="index.html" style="padding-top: 5px;"><img src="../static/images/title.png"></a>\\r\\n\\t\\t\\t\\t</div>\\r\\n\\t\\t\\t\\t\\r\\n\\t\\t\\t\\t<div class="collapse navbar-collapse" id="bs-example-navbar-collapse-1">\\r\\n\\t\\t\\t\\t\\t<ul class="nav navbar-nav">\\r\\n\\t\\t\\t\\t\\t\\t\\t<li>\\r\\n\\t\\t\\t\\t\\t\\t\\t\\t<a href="#" class="nav_item_style" style="color: white;">\\r\\n\\t\\t\\t\\t\\t\\t\\t\\t\\t<img src="../static/images/ico/deadpool.png">&nbsp;&nbsp;Quem Somos\\r\\n\\t\\t\\t\\t\\t\\t\\t\\t</a>\\r\\n\\t\\t\\t\\t\\t\\t\\t</li>\\r\\n\\t\\t\\t\\t\\t\\t\\t<li>\\r\\n\\t\\t\\t\\t\\t\\t\\t\\t<div class="btn-group nav_item_cat_div">\\r\\n\\t\\t\\t\\t\\t\\t\\t\\t\\t<button data-toggle="dropdown" class="btn btn-default dropdown-toggle nav_item_cat nav_item_style" style="color: white;">\\r\\n\\t\\t\\t\\t\\t\\t\\t\\t\\t\\t<img src="../static/images/ico/spider_man.png">&nbsp;&nbsp;Gerenciar&nbsp;<strong class="caret"></strong>\\r\\n\\t\\t\\t\\t\\t\\t\\t\\t\\t</button>\\r\\n\\t\\t\\t\\t\\t\\t\\t\\t\\t<ul class="dropdown-menu nav_dropdown">\\r\\n\\t\\t\\t\\t\\t\\t\\t\\t\\t\\t<li><a href="insert_character.html">Gerenciar Personagem</a></li>\\r\\n\\t\\t\\t\\t\\t\\t\\t\\t\\t\\t<li><a href="insert_hq.html">Gerenciar HQ</a></li>\\r\\n\\t\\t\\t\\t\\t\\t\\t\\t\\t\\t<li><a href="#">Gerenciar Not\\xc3\\xadcias</a></li>\\r\\n\\t\\t\\t\\t\\t\\t\\t\\t\\t</ul>\\r\\n\\t\\t\\t\\t\\t\\t\\t\\t</div>\\r\\n\\t\\t\\t\\t\\t\\t\\t</li>\\r\\n\\t\\t\\t\\t\\t\\t\\t<li>\\r\\n\\t\\t\\t\\t\\t\\t\\t\\t<div class="btn-group nav_item_cat_div">\\r\\n\\t\\t\\t\\t\\t\\t\\t\\t\\t<button data-toggle="dropdown" class="btn btn-default dropdown-toggle nav_item_cat nav_item_style" style="color: white;">\\r\\n\\t\\t\\t\\t\\t\\t\\t\\t\\t\\t<img src="../static/images/ico/spider_man.png">&nbsp;&nbsp;Categorias&nbsp;<strong class="caret"></strong>\\r\\n\\t\\t\\t\\t\\t\\t\\t\\t\\t</button>\\r\\n\\t\\t\\t\\t\\t\\t\\t\\t\\t<ul class="dropdown-menu nav_dropdown">\\r\\n\\t\\t\\t\\t\\t\\t\\t\\t\\t\\t<li><a href="categories.html">Her\\xc3\\xb3is</a></li>\\r\\n\\t\\t\\t\\t\\t\\t\\t\\t\\t\\t<li><a href="#">Vil\\xc3\\xb5es</a></li>\\r\\n\\t\\t\\t\\t\\t\\t\\t\\t\\t\\t<li><a href="#">Anti-Her\\xc3\\xb3is</a></li>\\r\\n\\t\\t\\t\\t\\t\\t\\t\\t\\t\\t<li class="divider"></li>\\r\\n\\t\\t\\t\\t\\t\\t\\t\\t\\t\\t<li><a href="#">Vingadores</a></li>\\r\\n\\t\\t\\t\\t\\t\\t\\t\\t\\t\\t<li><a href="#">X-Men</a></li>\\r\\n\\t\\t\\t\\t\\t\\t\\t\\t\\t\\t<li><a href="#">Guardi\\xc3\\xb5es Da Galaxia</a></li>\\r\\n\\t\\t\\t\\t\\t\\t\\t\\t\\t</ul>\\r\\n\\t\\t\\t\\t\\t\\t\\t\\t</div>\\r\\n\\t\\t\\t\\t\\t\\t\\t</li>\\r\\n\\t\\t\\t\\t\\t\\t</ul>\\r\\n\\t\\t\\t\\t\\t\\t<ul class="nav navbar-nav navbar-right">\\r\\n\\t\\t\\t\\t\\t\\t\\t<li>\\r\\n\\t\\t\\t\\t\\t\\t\\t\\t<form class="navbar-form navbar-left" role="search" style="padding-top: 4px;">\\r\\n\\t\\t\\t\\t\\t\\t\\t\\t\\t<div class="form-group">\\r\\n\\t\\t\\t\\t\\t\\t\\t\\t\\t\\t<input style="width: 130px;" type="text" class="form-control nav_item_search_text" />\\r\\n\\t\\t\\t\\t\\t\\t\\t\\t\\t</div> \\r\\n\\t\\t\\t\\t\\t\\t\\t\\t\\t&nbsp;&nbsp;\\r\\n\\t\\t\\t\\t\\t\\t\\t\\t\\t<a href="#" type="submit">\\r\\n\\t\\t\\t\\t\\t\\t\\t\\t\\t\\t<img src="../static/images/ico/search.png">\\r\\n\\t\\t\\t\\t\\t\\t\\t\\t\\t</a>\\r\\n\\t\\t\\t\\t\\t\\t\\t\\t</form>\\r\\n\\t\\t\\t\\t\\t\\t\\t</li>\\r\\n\\t\\t\\t\\t\\t\\t\\t<li>\\r\\n\\t\\t\\t\\t\\t\\t\\t\\t<div class="btn-group nav_item_cat_div">\\r\\n\\t\\t\\t\\t\\t\\t\\t\\t\\t<button data-toggle="dropdown" class="btn btn-default dropdown-toggle nav_item_cat nav_item_style" style="color: white;">\\r\\n\\t\\t\\t\\t\\t\\t\\t\\t\\t\\t<img src="../static/images/ico/spider_man.png">&nbsp;&nbsp;Bem-Vindo Pedro&nbsp;<strong class="caret"></strong>\\r\\n\\t\\t\\t\\t\\t\\t\\t\\t\\t</button>\\r\\n\\t\\t\\t\\t\\t\\t\\t\\t\\t<ul class="dropdown-menu nav_dropdown" style="padding: 10px;">\\r\\n\\t\\t\\t\\t\\t\\t\\t\\t\\t\\t<li>\\r\\n\\t\\t\\t\\t\\t\\t\\t\\t\\t\\t\\t<button class="form-control" onclick="onlyAdmin()">Sair</button>\\r\\n\\t\\t\\t\\t\\t\\t\\t\\t\\t\\t</li>\\r\\n\\t\\t\\t\\t\\t\\t\\t\\t\\t</ul>\\r\\n\\t\\t\\t\\t\\t\\t\\t\\t</div>\\r\\n\\t\\t\\t\\t\\t\\t\\t</li>\\r\\n\\t\\t\\t\\t\\t\\t</ul>\\r\\n\\t\\t\\t\\t</div>\\r\\n\\t\\t\\t\\t\\r\\n\\t\\t\\t</nav>\', escape=False)'
p95
sI3
S'response.write(\'\\r\\n\\t\\t</div>\\r\\n\\t</div>\\r\\n\\t<div class="row">\\r\\n\\t\\t<div class="col-md-12 news_title">\\r\\n\\t\\t\\t<span class="title">Inserir HQ</span>\\r\\n\\t\\t</div>\\r\\n\\t</div>\\r\\n\\t<div class="border_radius css_news">\\r\\n\\t\\t<div id="error"></div>\\r\\n\\t\\t\\t<form role="form">\\r\\n\\t\\t\\t\\t<table class="table_form">\\r\\n\\t\\t\\t\\t\\t<tr>\\r\\n\\t\\t\\t\\t\\t\\t<td align="center" class="td_insert td_insert_left"><span class="label_span">T&iacute;tulo</span></td>\\r\\n\\t\\t\\t\\t\\t\\t<td align="center" class="td_insert td_insert_right"><span class="label_span">Descri\\xc3\\xa7\\xc3\\xa3o</span></td>\\r\\n\\t\\t\\t\\t\\t</tr>\\r\\n\\t\\t\\t\\t\\t<tr>\\r\\n\\t\\t\\t\\t\\t\\t<td align="center"><input type="text" id="hq_title" class="form-control inputs_size" /></td>\\r\\n\\t\\t\\t\\t\\t\\t<td rowspan="4" align="center"><textarea id="hq_description" class="form-control text_area inputs_size_text_area"></textarea></td>\\r\\n\\t\\t\\t\\t\\t</tr>\\r\\n\\r\\n\\t\\t\\t\\t\\t<tr><td align="center" class="td_insert"><span class="label_span">Personagens</span></td></tr>\\r\\n\\t\\t\\t\\t\\t<tr>\\r\\n\\t\\t\\t\\t\\t\\t<td align="center">\\r\\n\\t\\t\\t\\t\\t\\t\\t<select id="hq_character" class="form-control selectpicker" multiple data-live-search="true" data-selected-text-format="count > 2" data-width="300px">\\r\\n\\t\\t\\t\\t\\t\\t\\t</select>\\r\\n\\t\\t\\t\\t\\t\\t</td>\\r\\n\\t\\t\\t\\t\\t</tr>\\r\\n\\r\\n\\t\\t\\t\\t\\t<tr><td align="center" class="td_insert"><span class="label_span">Ano</span></td></tr>\\r\\n\\t\\t\\t\\t\\t<tr><td align="center"><input type="text" id="hq_year" class="form-control inputs_size" /></td></tr>\\r\\n\\r\\n\\t\\t\\t\\t\\t<tr>\\r\\n\\t\\t\\t\\t\\t\\t<td colspan="2" align="center" class="td_insert">\\r\\n\\t\\t\\t\\t\\t\\t\\t<input type="button" class="btn btn-success btn_save" id="insert" onclick="submit_insert_hq();" value="Salvar" />\\r\\n\\t\\t\\t\\t\\t\\t\\t<input type="button" class="btn btn-warning btn_cancel" id="cancel" onclick="cancel_edit();" value="Cancelar" />\\r\\n\\t\\t\\t\\t\\t\\t</td>\\r\\n\\t\\t\\t\\t\\t</tr>\\r\\n\\t\\t\\t\\t</table>\\r\\n\\t\\t\\t</form>\\r\\n\\t\\t\\t<hr/>\\r\\n\\t\\t\\t<div class="div_form_right" id="table_hqs" align="left"></div>\\r\\n\\t</div>\\r\\n\\t<div class="row">\\r\\n\\t\\t<div class="col-md-12">\\r\\n\\t\\t\\t<div class="page-header footer">\\r\\n\\t\\t\\t\\t<h1 class="footer_h1">\\r\\n\\t\\t\\t\\t\\tMarvel Guide! <small>Um site para voc\\xc3\\xaa que gosta de ler quadrinhos, por\\xc3\\xa9m fica um pouco perdido em onde come\\xc3\\xa7ar a ler, iremos te ajudar a ter uma boa base para come\\xc3\\xa7ar a se aventurar nesse incr\\xc3\\xadvel universo MARVEL!</small>\\r\\n\\t\\t\\t\\t</h1>\\r\\n\\t\\t\\t\\t<hr/>\\r\\n\\t\\t\\t\\t<h1 class="footer_h1">\\r\\n\\t\\t\\t\\t\\tPedro Henrique Silva Rosa\\r\\n\\t\\t\\t\\t</h1>\\r\\n\\t\\t\\t</div>\\r\\n\\t\\t</div>\\r\\n\\t</div>\\r\\n</div>\\r\\n\\r\\n    <script type="text/javascript">\\r\\n    \\tinit_insert_hq(\', escape=False)'
p96
sI4
S'response.write(XML(json(characters)))'
p97
sI5
S"response.write(');\\r\\n    </script>\\r\\n\\r\\n  </body>\\r\\n</html>', escape=False)"
p98
ssg83
S'()'
p99
sg85
S'<module>'
p100
sasS'pyver'
p101
S'Python 2.7.6: /usr/bin/python (prefix: /usr)'
p102
sS'session'
p103
g57
(S's\x1a\x00\x00\x00<div><table></table></div>'
tRp104
sS'etype'
p105
S"<type 'exceptions.NameError'>"
p106
sS'date'
p107
S'Tue Apr 19 20:06:36 2016'
p108
sS'response'
p109
g57
(S's\x11?\x00\x00<div><table><tr><td style="font-weight:bold;vertical-align:top;">body</td><td style="vertical-align:top;">:</td><td><div>&lt;cStringIO.StringO object at 0x7fb5801382d0&gt;</div></td></tr><tr><td style="font-weight:bold;vertical-align:top;">cookies</td><td style="vertical-align:top;">:</td><td><div><table><tr><td style="font-weight:bold;vertical-align:top;">session_id_marvel_guide</td><td style="vertical-align:top;">:</td><td><div>127.0.0.1-cf8765d7-f95a-498b-9870-df4851c2f153<table><tr><td style="font-weight:bold;vertical-align:top;">comment</td><td style="vertical-align:top;">:</td><td><div></div></td></tr><tr><td style="font-weight:bold;vertical-align:top;">domain</td><td style="vertical-align:top;">:</td><td><div></div></td></tr><tr><td style="font-weight:bold;vertical-align:top;">expires</td><td style="vertical-align:top;">:</td><td><div></div></td></tr><tr><td style="font-weight:bold;vertical-align:top;">httponly</td><td style="vertical-align:top;">:</td><td><div></div></td></tr><tr><td style="font-weight:bold;vertical-align:top;">max-age</td><td style="vertical-align:top;">:</td><td><div></div></td></tr><tr><td style="font-weight:bold;vertical-align:top;">path</td><td style="vertical-align:top;">:</td><td><div>/</div></td></tr><tr><td style="font-weight:bold;vertical-align:top;">secure</td><td style="vertical-align:top;">:</td><td><div></div></td></tr><tr><td style="font-weight:bold;vertical-align:top;">version</td><td style="vertical-align:top;">:</td><td><div></div></td></tr></table></div></td></tr></table></div></td></tr><tr><td style="font-weight:bold;vertical-align:top;">delimiters</td><td style="vertical-align:top;">:</td><td><div><table><tr><td><div>{{</div></td></tr><tr><td><div>}}</div></td></tr></table></div></td></tr><tr><td style="font-weight:bold;vertical-align:top;">files</td><td style="vertical-align:top;">:</td><td><div><table></table></div></td></tr><tr><td style="font-weight:bold;vertical-align:top;">flash</td><td style="vertical-align:top;">:</td><td><div>Ol\xc3\xa1 Mundo</div></td></tr><tr><td style="font-weight:bold;vertical-align:top;">form_label_separator</td><td style="vertical-align:top;">:</td><td><div></div></td></tr><tr><td style="font-weight:bold;vertical-align:top;">formstyle</td><td style="vertical-align:top;">:</td><td><div>bootstrap3_inline</div></td></tr><tr><td style="font-weight:bold;vertical-align:top;">generic_patterns</td><td style="vertical-align:top;">:</td><td><div><table><tr><td><div>*</div></td></tr></table></div></td></tr><tr><td style="font-weight:bold;vertical-align:top;">google_analytics_id</td><td style="vertical-align:top;">:</td><td><div>None</div></td></tr><tr><td style="font-weight:bold;vertical-align:top;">headers</td><td style="vertical-align:top;">:</td><td><div><table><tr><td style="font-weight:bold;vertical-align:top;">X-Powered-By</td><td style="vertical-align:top;">:</td><td><div>web2py</div></td></tr></table></div></td></tr><tr><td style="font-weight:bold;vertical-align:top;">logo</td><td style="vertical-align:top;">:</td><td><div><a class="navbar-brand" href="http://www.web2py.com/" id="web2py-logo"><b>web<span>2</span>py</b>&trade;&nbsp;</a></div></td></tr><tr><td style="font-weight:bold;vertical-align:top;">menu</td><td style="vertical-align:top;">:</td><td><div><table><tr><td><div><table><tr><td><div>Principal</div></td></tr><tr><td><div>False</div></td></tr><tr><td><div>/marvel_guide/default/index</div></td></tr><tr><td><div><table></table></div></td></tr></table></div></td></tr><tr><td><div><table><tr><td><div>Meus sites</div></td></tr><tr><td><div>False</div></td></tr><tr><td><div>/admin/default/site</div></td></tr></table></div></td></tr><tr><td><div><table><tr><td><div>Esta aplica\xc3\xa7\xc3\xa3o</div></td></tr><tr><td><div>False</div></td></tr><tr><td><div>#</div></td></tr><tr><td><div><table><tr><td><div><table><tr><td><div>Design</div></td></tr><tr><td><div>False</div></td></tr><tr><td><div>/admin/default/design/marvel_guide</div></td></tr></table></div></td></tr><tr><td><div><li class="divider"></li></div></td></tr><tr><td><div><table><tr><td><div>Controlador</div></td></tr><tr><td><div>False</div></td></tr><tr><td><div>/admin/default/edit/marvel_guide/controllers/admin.py</div></td></tr></table></div></td></tr><tr><td><div><table><tr><td><div>Visualiza\xc3\xa7\xc3\xa3o</div></td></tr><tr><td><div>False</div></td></tr><tr><td><div>/admin/default/edit/marvel_guide/views/admin/insert_hq.html</div></td></tr></table></div></td></tr><tr><td><div><table><tr><td><div>Modelo BD</div></td></tr><tr><td><div>False</div></td></tr><tr><td><div>/admin/default/edit/marvel_guide/models/db.py</div></td></tr></table></div></td></tr><tr><td><div><table><tr><td><div>Modelo de Menu</div></td></tr><tr><td><div>False</div></td></tr><tr><td><div>/admin/default/edit/marvel_guide/models/menu.py</div></td></tr></table></div></td></tr><tr><td><div><table><tr><td><div>Config.ini</div></td></tr><tr><td><div>False</div></td></tr><tr><td><div>/admin/default/edit/marvel_guide/private/appconfig.ini</div></td></tr></table></div></td></tr><tr><td><div><table><tr><td><div>Layout</div></td></tr><tr><td><div>False</div></td></tr><tr><td><div>/admin/default/edit/marvel_guide/views/layout.html</div></td></tr></table></div></td></tr><tr><td><div><table><tr><td><div>Folha de estilo</div></td></tr><tr><td><div>False</div></td></tr><tr><td><div>/admin/default/edit/marvel_guide/static/css/web2py-bootstrap3.css</div></td></tr></table></div></td></tr><tr><td><div><table><tr><td><div>banco de dados</div></td></tr><tr><td><div>False</div></td></tr><tr><td><div>/marvel_guide/appadmin/index</div></td></tr></table></div></td></tr><tr><td><div><table><tr><td><div>Erros</div></td></tr><tr><td><div>False</div></td></tr><tr><td><div>/admin/default/errors/marvel_guide</div></td></tr></table></div></td></tr><tr><td><div><table><tr><td><div>Sobre</div></td></tr><tr><td><div>False</div></td></tr><tr><td><div>/admin/default/about/marvel_guide</div></td></tr></table></div></td></tr></table></div></td></tr></table></div></td></tr><tr><td><div><table><tr><td><div>web2py.com</div></td></tr><tr><td><div>False</div></td></tr><tr><td><div>#</div></td></tr><tr><td><div><table><tr><td><div><table><tr><td><div>Download</div></td></tr><tr><td><div>False</div></td></tr><tr><td><div>http://www.web2py.com/examples/default/download</div></td></tr></table></div></td></tr><tr><td><div><table><tr><td><div>Suporte</div></td></tr><tr><td><div>False</div></td></tr><tr><td><div>http://www.web2py.com/examples/default/support</div></td></tr></table></div></td></tr><tr><td><div><table><tr><td><div>Demo</div></td></tr><tr><td><div>False</div></td></tr><tr><td><div>http://web2py.com/demo_admin</div></td></tr></table></div></td></tr><tr><td><div><table><tr><td><div>Exemplos r\xc3\xa1pidos</div></td></tr><tr><td><div>False</div></td></tr><tr><td><div>http://web2py.com/examples/default/examples</div></td></tr></table></div></td></tr><tr><td><div><table><tr><td><div>Perguntas frequentes</div></td></tr><tr><td><div>False</div></td></tr><tr><td><div>http://web2py.com/AlterEgo</div></td></tr></table></div></td></tr><tr><td><div><table><tr><td><div>V\xc3\xaddeos</div></td></tr><tr><td><div>False</div></td></tr><tr><td><div>http://www.web2py.com/examples/default/videos/</div></td></tr></table></div></td></tr><tr><td><div><table><tr><td><div>Aplica\xc3\xa7\xc3\xb5es gratuitas</div></td></tr><tr><td><div>False</div></td></tr><tr><td><div>http://web2py.com/appliances</div></td></tr></table></div></td></tr><tr><td><div><table><tr><td><div>Plugins</div></td></tr><tr><td><div>False</div></td></tr><tr><td><div>http://web2py.com/plugins</div></td></tr></table></div></td></tr><tr><td><div><table><tr><td><div>Receitas</div></td></tr><tr><td><div>False</div></td></tr><tr><td><div>http://web2pyslices.com/</div></td></tr></table></div></td></tr></table></div></td></tr></table></div></td></tr><tr><td><div><table><tr><td><div>Documenta\xc3\xa7\xc3\xa3o</div></td></tr><tr><td><div>False</div></td></tr><tr><td><div>#</div></td></tr><tr><td><div><table><tr><td><div><table><tr><td><div>Online book</div></td></tr><tr><td><div>False</div></td></tr><tr><td><div>http://www.web2py.com/book</div></td></tr></table></div></td></tr><tr><td><div><li class="divider"></li></div></td></tr><tr><td><div><table><tr><td><div>Pref\xc3\xa1cio</div></td></tr><tr><td><div>False</div></td></tr><tr><td><div>http://www.web2py.com/book/default/chapter/00</div></td></tr></table></div></td></tr><tr><td><div><table><tr><td><div>Introdu\xc3\xa7\xc3\xa3o</div></td></tr><tr><td><div>False</div></td></tr><tr><td><div>http://www.web2py.com/book/default/chapter/01</div></td></tr></table></div></td></tr><tr><td><div><table><tr><td><div>Python</div></td></tr><tr><td><div>False</div></td></tr><tr><td><div>http://www.web2py.com/book/default/chapter/02</div></td></tr></table></div></td></tr><tr><td><div><table><tr><td><div>Vis\xc3\xa3o Geral</div></td></tr><tr><td><div>False</div></td></tr><tr><td><div>http://www.web2py.com/book/default/chapter/03</div></td></tr></table></div></td></tr><tr><td><div><table><tr><td><div>The Core</div></td></tr><tr><td><div>False</div></td></tr><tr><td><div>http://www.web2py.com/book/default/chapter/04</div></td></tr></table></div></td></tr><tr><td><div><table><tr><td><div>As views</div></td></tr><tr><td><div>False</div></td></tr><tr><td><div>http://www.web2py.com/book/default/chapter/05</div></td></tr></table></div></td></tr><tr><td><div><table><tr><td><div>banco de dados</div></td></tr><tr><td><div>False</div></td></tr><tr><td><div>http://www.web2py.com/book/default/chapter/06</div></td></tr></table></div></td></tr><tr><td><div><table><tr><td><div>Formul\xc3\xa1rios e Validadores</div></td></tr><tr><td><div>False</div></td></tr><tr><td><div>http://www.web2py.com/book/default/chapter/07</div></td></tr></table></div></td></tr><tr><td><div><table><tr><td><div>Email e SMS</div></td></tr><tr><td><div>False</div></td></tr><tr><td><div>http://www.web2py.com/book/default/chapter/08</div></td></tr></table></div></td></tr><tr><td><div><table><tr><td><div>Controle de Acesso</div></td></tr><tr><td><div>False</div></td></tr><tr><td><div>http://www.web2py.com/book/default/chapter/09</div></td></tr></table></div></td></tr><tr><td><div><table><tr><td><div>Servi\xc3\xa7o</div></td></tr><tr><td><div>False</div></td></tr><tr><td><div>http://www.web2py.com/book/default/chapter/10</div></td></tr></table></div></td></tr><tr><td><div><table><tr><td><div>Receitas de Ajax</div></td></tr><tr><td><div>False</div></td></tr><tr><td><div>http://www.web2py.com/book/default/chapter/11</div></td></tr></table></div></td></tr><tr><td><div><table><tr><td><div>Componentes e Plugins</div></td></tr><tr><td><div>False</div></td></tr><tr><td><div>http://www.web2py.com/book/default/chapter/12</div></td></tr></table></div></td></tr><tr><td><div><table><tr><td><div>Receitas de deploy</div></td></tr><tr><td><div>False</div></td></tr><tr><td><div>http://www.web2py.com/book/default/chapter/13</div></td></tr></table></div></td></tr><tr><td><div><table><tr><td><div>Outras Receitas</div></td></tr><tr><td><div>False</div></td></tr><tr><td><div>http://www.web2py.com/book/default/chapter/14</div></td></tr></table></div></td></tr><tr><td><div><table><tr><td><div>Helping web2py</div></td></tr><tr><td><div>False</div></td></tr><tr><td><div>http://www.web2py.com/book/default/chapter/15</div></td></tr></table></div></td></tr><tr><td><div><table><tr><td><div>Buy web2py\'s book</div></td></tr><tr><td><div>False</div></td></tr><tr><td><div>http://stores.lulu.com/web2py</div></td></tr></table></div></td></tr></table></div></td></tr></table></div></td></tr><tr><td><div><table><tr><td><div>Comunidade</div></td></tr><tr><td><div>False</div></td></tr><tr><td><div>None</div></td></tr><tr><td><div><table><tr><td><div><table><tr><td><div>Grupos</div></td></tr><tr><td><div>False</div></td></tr><tr><td><div>http://www.web2py.com/examples/default/usergroups</div></td></tr></table></div></td></tr><tr><td><div><table><tr><td><div>Twitter</div></td></tr><tr><td><div>False</div></td></tr><tr><td><div>http://twitter.com/web2py</div></td></tr></table></div></td></tr><tr><td><div><table><tr><td><div>Chat ao vivo</div></td></tr><tr><td><div>False</div></td></tr><tr><td><div>http://webchat.freenode.net/?channels=web2py</div></td></tr></table></div></td></tr></table></div></td></tr></table></div></td></tr></table></div></td></tr><tr><td style="font-weight:bold;vertical-align:top;">meta</td><td style="vertical-align:top;">:</td><td><div><table><tr><td style="font-weight:bold;vertical-align:top;">author</td><td style="vertical-align:top;">:</td><td><div>Your Name &lt;you@example.com&gt;</div></td></tr><tr><td style="font-weight:bold;vertical-align:top;">description</td><td style="vertical-align:top;">:</td><td><div>a cool new app</div></td></tr><tr><td style="font-weight:bold;vertical-align:top;">generator</td><td style="vertical-align:top;">:</td><td><div>Web2py Web Framework</div></td></tr><tr><td style="font-weight:bold;vertical-align:top;">keywords</td><td style="vertical-align:top;">:</td><td><div>web2py, python, framework</div></td></tr></table></div></td></tr><tr><td style="font-weight:bold;vertical-align:top;">models_to_run</td><td style="vertical-align:top;">:</td><td><div><table><tr><td><div>^\\w+\\.py$</div></td></tr><tr><td><div>^admin/\\w+\\.py$</div></td></tr><tr><td><div>^admin/insert_hq/\\w+\\.py$</div></td></tr></table></div></td></tr><tr><td style="font-weight:bold;vertical-align:top;">postprocessing</td><td style="vertical-align:top;">:</td><td><div><table></table></div></td></tr><tr><td style="font-weight:bold;vertical-align:top;">session_client</td><td style="vertical-align:top;">:</td><td><div>127.0.0.1</div></td></tr><tr><td style="font-weight:bold;vertical-align:top;">session_cookie_compression_level</td><td style="vertical-align:top;">:</td><td><div>None</div></td></tr><tr><td style="font-weight:bold;vertical-align:top;">session_cookie_expires</td><td style="vertical-align:top;">:</td><td><div>None</div></td></tr><tr><td style="font-weight:bold;vertical-align:top;">session_cookie_key</td><td style="vertical-align:top;">:</td><td><div>None</div></td></tr><tr><td style="font-weight:bold;vertical-align:top;">session_data_name</td><td style="vertical-align:top;">:</td><td><div>session_data_marvel_guide</div></td></tr><tr><td style="font-weight:bold;vertical-align:top;">session_file</td><td style="vertical-align:top;">:</td><td><div>None</div></td></tr><tr><td style="font-weight:bold;vertical-align:top;">session_filename</td><td style="vertical-align:top;">:</td><td><div>/home/pedro/web2py/applications/marvel_guide/sessions/127.0.0.1-cf8765d7-f95a-498b-9870-df4851c2f153</div></td></tr><tr><td style="font-weight:bold;vertical-align:top;">session_hash</td><td style="vertical-align:top;">:</td><td><div>c0762cbf4baf7f9af97c051e7fcb8083</div></td></tr><tr><td style="font-weight:bold;vertical-align:top;">session_id</td><td style="vertical-align:top;">:</td><td><div>127.0.0.1-cf8765d7-f95a-498b-9870-df4851c2f153</div></td></tr><tr><td style="font-weight:bold;vertical-align:top;">session_id_name</td><td style="vertical-align:top;">:</td><td><div>session_id_marvel_guide</div></td></tr><tr><td style="font-weight:bold;vertical-align:top;">session_masterapp</td><td style="vertical-align:top;">:</td><td><div>marvel_guide</div></td></tr><tr><td style="font-weight:bold;vertical-align:top;">session_new</td><td style="vertical-align:top;">:</td><td><div>True</div></td></tr><tr><td style="font-weight:bold;vertical-align:top;">session_storage_type</td><td style="vertical-align:top;">:</td><td><div>file</div></td></tr><tr><td style="font-weight:bold;vertical-align:top;">status</td><td style="vertical-align:top;">:</td><td><div>200</div></td></tr><tr><td style="font-weight:bold;vertical-align:top;">subtitle</td><td style="vertical-align:top;">:</td><td><div></div></td></tr><tr><td style="font-weight:bold;vertical-align:top;">title</td><td style="vertical-align:top;">:</td><td><div>Marvel Guide</div></td></tr><tr><td style="font-weight:bold;vertical-align:top;">view</td><td style="vertical-align:top;">:</td><td><div>admin/insert_hq.html</div></td></tr></table></div>'
tRp110
sS'locals'
p111
(dp112
S'Service'
p113
S"<class 'gluon.tools.Service'>"
p114
sS'OBJECT'
p115
S"<class 'gluon.html.OBJECT'>"
p116
sS'SQLDB'
p117
S"<class 'pydal.base.DAL'>"
p118
sg103
S'<Storage {}>'
p119
sS'LINK'
p120
S"<class 'gluon.html.LINK'>"
p121
sS'BR'
p122
S"<class 'gluon.html.BR'>"
p123
sS'local_import'
p124
S'<function <lambda>>'
p125
sS'OPTGROUP'
p126
S"<class 'gluon.html.OPTGROUP'>"
p127
sS'__package__'
p128
S'None'
p129
sS'PRE'
p130
S"<class 'gluon.html.PRE'>"
p131
sS'IS_INT_IN_RANGE'
p132
S"<class 'gluon.validators.IS_INT_IN_RANGE'>"
p133
sS'IS_LOWER'
p134
S"<class 'gluon.validators.IS_LOWER'>"
p135
sS'IS_STRONG'
p136
S"<class 'gluon.validators.IS_STRONG'>"
p137
sS'cache'
p138
S'<gluon.cache.Cache object>'
p139
sS'IS_IN_DB'
p140
S"<class 'gluon.validators.IS_IN_DB'>"
p141
sS'TAG'
p142
S'<gluon.html.__TAG__ object>'
p143
sS'SQLField'
p144
S"<class 'pydal.objects.Field'>"
p145
sS'mail'
p146
S'<gluon.tools.Mail object>'
p147
sS'BODY'
p148
S"<class 'gluon.html.BODY'>"
p149
sS'IS_DATE_IN_RANGE'
p150
S"<class 'gluon.validators.IS_DATE_IN_RANGE'>"
p151
sS'IFRAME'
p152
S"<class 'gluon.html.IFRAME'>"
p153
sS'URL'
p154
S'<function URL>'
p155
sS'__file__'
p156
S"'/home/pedro/web2py/applications/marvel_guide/views/admin/insert_hq.html'"
p157
sS'db'
p158
S'<DAL uri="postgres:******@localhost/marvel_guide">'
p159
sS'auth'
p160
S'<gluon.tools.Auth object>'
p161
sS'P'
S"<class 'gluon.html.P'>"
p162
sS'TFOOT'
p163
S"<class 'gluon.html.TFOOT'>"
p164
sS'XHTML'
p165
S"<class 'gluon.html.XHTML'>"
p166
sS'datetime'
p167
S"<type 'datetime.datetime'>"
p168
sS'ON'
p169
S'True'
p170
sS'OL'
p171
S"<class 'gluon.html.OL'>"
p172
sS'TEXTAREA'
p173
S"<class 'gluon.html.TEXTAREA'>"
p174
sS'MENU'
p175
S"<class 'gluon.html.MENU'>"
p176
sS'IS_IMAGE'
p177
S"<class 'gluon.validators.IS_IMAGE'>"
p178
sS'EM'
p179
S"<class 'gluon.html.EM'>"
p180
sS'CODE'
p181
S"<class 'gluon.html.CODE'>"
p182
sS'HTTP'
p183
S"<class 'gluon.http.HTTP'>"
p184
sS'HR'
p185
S"<class 'gluon.html.HR'>"
p186
sS'IS_DATETIME'
p187
S"<class 'gluon.validators.IS_DATETIME'>"
p188
sS'STYLE'
p189
S"<class 'gluon.html.STYLE'>"
p190
sS'LABEL'
p191
S"<class 'gluon.html.LABEL'>"
p192
sS'CLEANUP'
p193
S"<class 'gluon.validators.CLEANUP'>"
p194
sS'plugins'
p195
S'<gluon.tools.PluginManager object>'
p196
sS'SELECT'
p197
S"<class 'gluon.html.SELECT'>"
p198
sS'CENTER'
p199
S"<class 'gluon.html.CENTER'>"
p200
sS'Auth'
p201
S"<class 'gluon.tools.Auth'>"
p202
sS'DEVELOPMENT_MENU'
p203
g170
sS'__builtins__'
p204
S"{'ArithmeticError': <type 'exceptions.ArithmeticError'>, 'AssertionError': <type 'exceptions.AssertionError'>, 'AttributeError': <type 'exceptions.AttributeError'>, 'BaseException': <type 'exceptions.BaseException'>, 'BufferError': <type 'exceptions.BufferError'>, 'BytesWarning': <type 'exceptions.BytesWarning'>, 'DeprecationWarning': <type 'exceptions.DeprecationWarning'>, 'EOFError': <type 'exceptions.EOFError'>, 'Ellipsis': Ellipsis, 'EnvironmentError': <type 'exceptions.EnvironmentError'>, ...}"
p205
sS'HTML'
p206
S"<class 'gluon.html.HTML'>"
p207
sS'SQLFORM'
p208
S"<class 'gluon.sqlhtml.SQLFORM'>"
p209
sS'LOAD'
p210
S'<function LOAD>'
p211
sS'redirect'
p212
S'<function redirect>'
p213
sS'FIELDSET'
p214
S"<class 'gluon.html.FIELDSET'>"
p215
sS'IS_EQUAL_TO'
p216
S"<class 'gluon.validators.IS_EQUAL_TO'>"
p217
sS'embed64'
p218
S'<function embed64>'
p219
sS'IS_LIST_OF'
p220
S"<class 'gluon.validators.IS_LIST_OF'>"
p221
sS'INPUT'
p222
S"<class 'gluon.html.INPUT'>"
p223
sS'EMBED'
p224
S"<class 'gluon.html.EMBED'>"
p225
sS'_'
S'<function _>'
p226
sS'myconf'
p227
S"{'forms': {'formstyle': 'bootstrap3_inline', 'se...'you@gmail.com', 'server': 'smtp.gmail.com:587'}}"
p228
sS'H2'
p229
S"<class 'gluon.html.H2'>"
p230
sS'H3'
p231
S"<class 'gluon.html.H3'>"
p232
sS'AppConfig'
p233
S'<function AppConfig>'
p234
sS'H1'
p235
S"<class 'gluon.html.H1'>"
p236
sS'H6'
p237
S"<class 'gluon.html.H6'>"
p238
sS'H4'
p239
S"<class 'gluon.html.H4'>"
p240
sS'H5'
p241
S"<class 'gluon.html.H5'>"
p242
sS'UL'
p243
S"<class 'gluon.html.UL'>"
p244
sS'IS_UPPER'
p245
S"<class 'gluon.validators.IS_UPPER'>"
p246
sS'xmlescape'
p247
S'<function xmlescape>'
p248
sS'IS_TIME'
p249
S"<class 'gluon.validators.IS_TIME'>"
p250
sS'OPTION'
p251
S"<class 'gluon.html.OPTION'>"
p252
sS'TITLE'
p253
S"<class 'gluon.html.TITLE'>"
p254
sS'CRYPT'
p255
S"<class 'gluon.validators.CRYPT'>"
p256
sS'IS_EMPTY_OR'
p257
S"<class 'gluon.validators.IS_EMPTY_OR'>"
p258
sS'MARKMIN'
p259
S"<class 'gluon.html.MARKMIN'>"
p260
sS'__name__'
p261
S"'__restricted__'"
p262
sS'STRONG'
p263
S"<class 'gluon.html.STRONG'>"
p264
sS'COL'
p265
S"<class 'gluon.html.COL'>"
p266
sS'service'
p267
S'<gluon.tools.Service object>'
p268
sS'SCRIPT'
p269
S"<class 'gluon.html.SCRIPT'>"
p270
sS'TABLE'
p271
S"<class 'gluon.html.TABLE'>"
p272
sS'IS_IPV4'
p273
S"<class 'gluon.validators.IS_IPV4'>"
p274
sS'IS_LENGTH'
p275
S"<class 'gluon.validators.IS_LENGTH'>"
p276
sS'IS_IPV6'
p277
S"<class 'gluon.validators.IS_IPV6'>"
p278
sS'XML'
p279
S"<class 'gluon.html.XML'>"
p280
sS'B'
S"<class 'gluon.html.B'>"
p281
sS'IMG'
p282
S"<class 'gluon.html.IMG'>"
p283
sS'SQLTABLE'
p284
S"<class 'gluon.sqlhtml.SQLTABLE'>"
p285
sS'IS_MATCH'
p286
S"<class 'gluon.validators.IS_MATCH'>"
p287
sS'IS_ALPHANUMERIC'
p288
S"<class 'gluon.validators.IS_ALPHANUMERIC'>"
p289
sS'SPAN'
p290
S"<class 'gluon.html.SPAN'>"
p291
sS'IS_JSON'
p292
S"<class 'gluon.validators.IS_JSON'>"
p293
sS'IS_IPADDRESS'
p294
S"<class 'gluon.validators.IS_IPADDRESS'>"
p295
sS'IS_SLUG'
p296
S"<class 'gluon.validators.IS_SLUG'>"
p297
sS'BEAUTIFY'
p298
S"<class 'gluon.html.BEAUTIFY'>"
p299
sS'META'
p300
S"<class 'gluon.html.META'>"
p301
sS'BUTTON'
p302
S"<class 'gluon.html.BUTTON'>"
p303
sS'IS_DATE'
p304
S"<class 'gluon.validators.IS_DATE'>"
p305
sS'IS_EMAIL'
p306
S"<class 'gluon.validators.IS_EMAIL'>"
p307
sS'IS_NOT_EMPTY'
p308
S"<class 'gluon.validators.IS_NOT_EMPTY'>"
p309
sS'IS_FLOAT_IN_RANGE'
p310
S"<class 'gluon.validators.IS_FLOAT_IN_RANGE'>"
p311
sS'TBODY'
p312
S"<class 'gluon.html.TBODY'>"
p313
sS'CAT'
p314
S"<class 'gluon.html.CAT'>"
p315
sS'Field'
p316
S"<class 'pydal.objects.Field'>"
p317
sS'IS_LIST_OF_EMAILS'
p318
S"<class 'gluon.validators.IS_LIST_OF_EMAILS'>"
p319
sS'DIV'
p320
S"<class 'gluon.html.DIV'>"
p321
sS'LEGEND'
p322
S"<class 'gluon.html.LEGEND'>"
p323
sS'COLGROUP'
p324
S"<class 'gluon.html.COLGROUP'>"
p325
sS'DAL'
p326
S"<class 'pydal.base.DAL'>"
p327
sS'ASSIGNJS'
p328
S'<function ASSIGNJS>'
p329
sS'TR'
p330
S"<class 'gluon.html.TR'>"
p331
sS'LI'
p332
S"<class 'gluon.html.LI'>"
p333
sS'TH'
p334
S"<class 'gluon.html.TH'>"
p335
sS'TD'
p336
S"<class 'gluon.html.TD'>"
p337
sS'PluginManager'
p338
S"<class 'gluon.tools.PluginManager'>"
p339
sS'IS_URL'
p340
S"<class 'gluon.validators.IS_URL'>"
p341
sS'A'
S"<class 'gluon.html.A'>"
p342
sS'HEAD'
p343
S"<class 'gluon.html.HEAD'>"
p344
sS'IS_DATETIME_IN_RANGE'
p345
S"<class 'gluon.validators.IS_DATETIME_IN_RANGE'>"
p346
sS'FORM'
p347
S"<class 'gluon.html.FORM'>"
p348
sS'I'
S"<class 'gluon.html.I'>"
p349
sS'IS_NOT_IN_DB'
p350
S"<class 'gluon.validators.IS_NOT_IN_DB'>"
p351
sS'characters'
p352
S"[{'char_image': u'', 'char_name': u'Homem-Aranha', 'char_type': 0, 'created': datetime.datetime(2016, 4, 19, 19, 44, 25, 888704), 'id': 1}, {'char_image': u'', 'char_name': u'Demolidor', 'char_type': 0, 'created': datetime.datetime(2016, 4, 19, 19, 44, 32, 990169), 'id': 2}, {'char_image': u'', 'char_name': u'Deadpool', 'char_type': 0, 'created': datetime.datetime(2016, 4, 19, 19, 44, 37, 330802), 'id': 3}, {'char_image': u'', 'char_name': u'Capit\\xe3o Am\\xe9rica', 'char_type': 0, 'created': datetime.datetime(2016, 4, 19, 19, 44, 44, 610298), 'id': 4}, {'char_image': u'', 'char_name': u'Thor', 'char_type': 0, 'created': datetime.datetime(2016, 4, 19, 19, 44, 53, 85753), 'id': 5}, {'char_image': u'', 'char_name': u'Vis\\xe3o', 'char_type': 0, 'created': datetime.datetime(2016, 4, 19, 19, 44, 56, 244184), 'id': 6}, {'char_image': u'', 'char_name': u'Homem de Ferro', 'char_type': 0, 'created': datetime.datetime(2016, 4, 19, 19, 45, 6, 293497), 'id': 7}]"
p353
sg109
S"<Storage {'body': <cStringIO.StringO object at 0...0x7fb5900d7050>, 'view': 'admin/insert_hq.html'}>"
p354
sS'THEAD'
p355
S"<class 'gluon.html.THEAD'>"
p356
sS'ANY_OF'
p357
S"<class 'gluon.validators.ANY_OF'>"
p358
sS'IS_NULL_OR'
p359
S"<class 'gluon.validators.IS_EMPTY_OR'>"
p360
sg56
S"<Storage {'_vars': None, 'function': 'insert_hq'...'/home/pedro/web2py/applications/marvel_guide/'}>"
p361
sS'IS_EXPR'
p362
S"<class 'gluon.validators.IS_EXPR'>"
p363
sS'T'
S'<gluon.languages.translator object>'
p364
sS'IS_IN_SET'
p365
S"<class 'gluon.validators.IS_IN_SET'>"
p366
sS'IS_UPLOAD_FILENAME'
p367
S"<class 'gluon.validators.IS_UPLOAD_FILENAME'>"
p368
sS'TT'
p369
S"<class 'gluon.html.TT'>"
p370
sS'IS_DECIMAL_IN_RANGE'
p371
S"<class 'gluon.validators.IS_DECIMAL_IN_RANGE'>"
p372
sssS'traceback'
p373
S'Traceback (most recent call last):\n  File "/home/pedro/web2py/gluon/restricted.py", line 227, in restricted\n    exec ccode in environment\n  File "/home/pedro/web2py/applications/marvel_guide/views/admin/insert_hq.html", line 4, in <module>\n    <meta charset="utf-8">\nNameError: name \'json\' is not defined\n'
p374
s.